target datalayout = "e-m:e-p270:32:32-p271:32:32-p272:64:64-i64:64-i128:128-f80:128-n8:16:32:64-S128"
target triple = "x86_64-pc-linux-gnu"

%"class.tbb::detail::r1::basic_tls" = type { i32 }
%"class.tbb::detail::r1::thread_data" = type { %"struct.tbb::detail::d1::intrusive_list_node", i16, i8, i8, ptr, ptr, ptr, ptr, %"class.tbb::detail::r1::mail_inbox", %"class.tbb::detail::r1::FastRandom", ptr, ptr, ptr, i32, ptr, %"class.tbb::detail::d1::task_group_context" }
%"struct.tbb::detail::d1::intrusive_list_node" = type { ptr, ptr }
%"class.tbb::detail::r1::mail_inbox" = type { ptr }
%"class.tbb::detail::r1::FastRandom" = type { i32, i32 }
%"class.tbb::detail::d1::task_group_context" = type { i64, %"struct.std::atomic.4", i8, %"struct.tbb::detail::d1::task_group_context::context_traits", %"struct.std::atomic.6", %"struct.std::atomic.8", %union.anon, ptr, %"struct.tbb::detail::d1::intrusive_list_node", %"struct.std::atomic.9", ptr, i64, [56 x i8] }
%"struct.std::atomic.4" = type { %"struct.std::__atomic_base.5" }
%"struct.std::__atomic_base.5" = type { i32 }
%"struct.tbb::detail::d1::task_group_context::context_traits" = type { i8 }
%"struct.std::atomic.6" = type { %"struct.std::__atomic_base.7" }
%"struct.std::__atomic_base.7" = type { i8 }
%"struct.std::atomic.8" = type { i8 }
%union.anon = type { ptr }
%"struct.std::atomic.9" = type { %"struct.std::__atomic_base.10" }
%"struct.std::__atomic_base.10" = type { ptr }

@_ZN3tbb6detail2r18governor6theTLSE = external global %"class.tbb::detail::r1::basic_tls", align 4

; Function Attrs: mustprogress nounwind sspstrong uwtable
define linkonce_odr noundef ptr @_ZN3tbb6detail2r19basic_tlsIPNS1_11thread_dataEE3getEv(ptr noundef nonnull align 4 dereferenceable(4) %0) #1 comdat align 2 {
  %2 = alloca ptr, align 8
  store ptr %0, ptr %2, align 8, !tbaa !201
  %3 = load ptr, ptr %2, align 8
  %4 = getelementptr inbounds nuw %"class.tbb::detail::r1::basic_tls", ptr %3, i32 0, i32 0
  %5 = load i32, ptr %4, align 4, !tbaa !203
  %6 = call ptr @pthread_getspecific(i32 noundef %5) #11
  ret ptr %6
}

; Function Attrs: mustprogress sspstrong uwtable
define void @_ZN3tbb6detail2r115task_dispatcher7suspendEPFvPvPNS1_18suspend_point_typeEES3_(ptr noundef nonnull align 128 dereferenceable(128) %0, ptr noundef %1, ptr noundef %2) #3 align 2 {
  %4 = alloca ptr, align 8
  %5 = alloca ptr, align 8
  %6 = alloca ptr, align 8
  store ptr %0, ptr %4, align 8, !tbaa !65
  store ptr %1, ptr %5, align 8, !tbaa !10
  store ptr %2, ptr %6, align 8, !tbaa !10
  %7 = load ptr, ptr %4, align 8
  %8 = load ptr, ptr %5, align 8, !tbaa !10
  %9 = load ptr, ptr %6, align 8, !tbaa !10
  %10 = call noundef ptr @_ZN3tbb6detail2r115task_dispatcher17get_suspend_pointEv(ptr noundef nonnull align 128 dereferenceable(128) %7)
  call void %8(ptr noundef %9, ptr noundef %10)
  call void @_ZN3tbb6detail2r115task_dispatcher16internal_suspendEv(ptr noundef nonnull align 128 dereferenceable(128) %7)
  ret void
}

; Function Attrs: mustprogress sspstrong uwtable
define linkonce_odr noundef ptr @_ZN3tbb6detail2r18governor15get_thread_dataEv() #3 comdat align 2 {
  %1 = alloca ptr, align 8
  %2 = alloca ptr, align 8
  %3 = alloca i32, align 4
  call void @llvm.lifetime.start.p0(i64 8, ptr %2) #11
  %4 = call noundef ptr @_ZN3tbb6detail2r19basic_tlsIPNS1_11thread_dataEE3getEv(ptr noundef nonnull align 4 dereferenceable(4) @_ZN3tbb6detail2r18governor6theTLSE)
  store ptr %4, ptr %2, align 8, !tbaa !3
  %5 = load ptr, ptr %2, align 8, !tbaa !3
  %6 = icmp ne ptr %5, null
  br i1 %6, label %7, label %9

7:                                                ; preds = %0
  %8 = load ptr, ptr %2, align 8, !tbaa !3
  store ptr %8, ptr %1, align 8
  store i32 1, ptr %3, align 4
  br label %12

9:                                                ; preds = %0
  call void @_ZN3tbb6detail2r18governor20init_external_threadEv()
  %10 = call noundef ptr @_ZN3tbb6detail2r19basic_tlsIPNS1_11thread_dataEE3getEv(ptr noundef nonnull align 4 dereferenceable(4) @_ZN3tbb6detail2r18governor6theTLSE)
  store ptr %10, ptr %2, align 8, !tbaa !3
  %11 = load ptr, ptr %2, align 8, !tbaa !3
  store ptr %11, ptr %1, align 8
  store i32 1, ptr %3, align 4
  br label %12

12:                                               ; preds = %9, %7
  call void @llvm.lifetime.end.p0(i64 8, ptr %2) #11
  %13 = load ptr, ptr %1, align 8
  ret ptr %13
}

; Function Attrs: mustprogress sspstrong uwtable
define void @_ZN3tbb6detail2r17suspendEPFvPvPNS1_18suspend_point_typeEES2_(ptr noundef %0, ptr noundef %1) #3 {
  %3 = alloca ptr, align 8
  %4 = alloca ptr, align 8
  %5 = alloca ptr, align 8
  store ptr %0, ptr %3, align 8, !tbaa !10
  store ptr %1, ptr %4, align 8, !tbaa !10
  call void @llvm.lifetime.start.p0(i64 8, ptr %5) #11
  %6 = call noundef ptr @_ZN3tbb6detail2r18governor15get_thread_dataEv()
  store ptr %6, ptr %5, align 8, !tbaa !3
  %7 = load ptr, ptr %5, align 8, !tbaa !3
  %8 = getelementptr inbounds nuw %"class.tbb::detail::r1::thread_data", ptr %7, i32 0, i32 4
  %9 = load ptr, ptr %8, align 8, !tbaa !97
  %10 = load ptr, ptr %3, align 8, !tbaa !10
  %11 = load ptr, ptr %4, align 8, !tbaa !10
  call void @_ZN3tbb6detail2r115task_dispatcher7suspendEPFvPvPNS1_18suspend_point_typeEES3_(ptr noundef nonnull align 128 dereferenceable(128) %9, ptr noundef %10, ptr noundef %11)
  call void @llvm.lifetime.end.p0(i64 8, ptr %5) #11
  ret void
}