; Function Attrs: mustprogress sspstrong uwtable
define void @_ZN3tbb6detail2r17suspendEPFvPvPNS1_18suspend_point_typeEES2_(ptr noundef readonly captures(none) %0, ptr noundef %1) local_unnamed_addr #2 {
  %3 = load i32, ptr @_ZN3tbb6detail2r18governor6theTLSE, align 4, !tbaa !122
  %4 = tail call noundef ptr @pthread_getspecific(i32 noundef %3) #6
  %.not.i = icmp eq ptr %4, null
  br i1 %.not.i, label %5, label %_ZN3tbb6detail2r18governor15get_thread_dataEv.exit

5:                                                ; preds = %2
  tail call void @_ZN3tbb6detail2r18governor20init_external_threadEv()
  %6 = load i32, ptr @_ZN3tbb6detail2r18governor6theTLSE, align 4, !tbaa !122
  %7 = tail call noundef ptr @pthread_getspecific(i32 noundef %6) #6
  br label %_ZN3tbb6detail2r18governor15get_thread_dataEv.exit

_ZN3tbb6detail2r18governor15get_thread_dataEv.exit: ; preds = %2, %5
  %.0.i = phi ptr [ %7, %5 ], [ %4, %2 ]
  %8 = getelementptr inbounds nuw i8, ptr %.0.i, i64 24
  %9 = load ptr, ptr %8, align 8, !tbaa !92
  %10 = tail call noundef ptr @_ZN3tbb6detail2r115task_dispatcher17get_suspend_pointEv(ptr noundef nonnull align 128 dereferenceable(128) %9)
  tail call void %0(ptr noundef %1, ptr noundef %10)
  tail call void @_ZN3tbb6detail2r115task_dispatcher16internal_suspendEv(ptr noundef nonnull align 128 dereferenceable(128) %9)
  ret void
}